; ModuleID = '5/1184.c'
source_filename = "5/1184.c"
target datalayout = "e-m:e-p270:32:32-p271:32:32-p272:64:64-i64:64-f80:128-n8:16:32:64-S128"
target triple = "x86_64-pc-linux-gnu"

@.str = private unnamed_addr constant [4 x i8] c"%lf\00", align 1
@.str.1 = private unnamed_addr constant [3 x i8] c"%s\00", align 1
@.str.2 = private unnamed_addr constant [6 x i8] c"error\00", align 1
@.str.3 = private unnamed_addr constant [4 x i8] c"yes\00", align 1
@.str.4 = private unnamed_addr constant [3 x i8] c"no\00", align 1

; Function Attrs: noinline nounwind uwtable
define dso_local i32 @main() #0 {
  %1 = alloca i32, align 4
  %2 = alloca [510 x i8], align 16
  %3 = alloca [510 x i8], align 16
  %4 = alloca i32, align 4
  %5 = alloca i32, align 4
  %6 = alloca i32, align 4
  %7 = alloca i32, align 4
  %8 = alloca double, align 8
  %9 = alloca double, align 8
  store i32 0, i32* %1, align 4
  store i32 0, i32* %7, align 4
  %10 = call i32 (i8*, ...) @__isoc99_scanf(i8* getelementptr inbounds ([4 x i8], [4 x i8]* @.str, i64 0, i64 0), double* %8)
  %11 = getelementptr inbounds [510 x i8], [510 x i8]* %2, i64 0, i64 0
  %12 = call i32 (i8*, ...) @__isoc99_scanf(i8* getelementptr inbounds ([3 x i8], [3 x i8]* @.str.1, i64 0, i64 0), i8* %11)
  %13 = getelementptr inbounds [510 x i8], [510 x i8]* %3, i64 0, i64 0
  %14 = call i32 (i8*, ...) @__isoc99_scanf(i8* getelementptr inbounds ([3 x i8], [3 x i8]* @.str.1, i64 0, i64 0), i8* %13)
  %15 = getelementptr inbounds [510 x i8], [510 x i8]* %2, i64 0, i64 0
  %16 = call i64 @strlen(i8* %15) #3
  %17 = trunc i64 %16 to i32
  store i32 %17, i32* %4, align 4
  %18 = getelementptr inbounds [510 x i8], [510 x i8]* %3, i64 0, i64 0
  %19 = call i64 @strlen(i8* %18) #3
  %20 = trunc i64 %19 to i32
  store i32 %20, i32* %5, align 4
  %21 = load i32, i32* %4, align 4
  %22 = load i32, i32* %5, align 4
  %23 = icmp ne i32 %21, %22
  br i1 %23, label %24, label %26

24:                                               ; preds = %0
  %25 = call i32 (i8*, ...) @printf(i8* getelementptr inbounds ([6 x i8], [6 x i8]* @.str.2, i64 0, i64 0))
  br label %122

26:                                               ; preds = %0
  store i32 0, i32* %6, align 4
  br label %27

27:                                               ; preds = %105, %26
  %28 = load i32, i32* %6, align 4
  %29 = load i32, i32* %4, align 4
  %30 = icmp slt i32 %28, %29
  br i1 %30, label %31, label %108

31:                                               ; preds = %27
  %32 = load i32, i32* %6, align 4
  %33 = sext i32 %32 to i64
  %34 = getelementptr inbounds [510 x i8], [510 x i8]* %2, i64 0, i64 %33
  %35 = load i8, i8* %34, align 1
  %36 = sext i8 %35 to i32
  %37 = icmp ne i32 %36, 65
  br i1 %37, label %38, label %59

38:                                               ; preds = %31
  %39 = load i32, i32* %6, align 4
  %40 = sext i32 %39 to i64
  %41 = getelementptr inbounds [510 x i8], [510 x i8]* %2, i64 0, i64 %40
  %42 = load i8, i8* %41, align 1
  %43 = sext i8 %42 to i32
  %44 = icmp ne i32 %43, 84
  br i1 %44, label %45, label %59

45:                                               ; preds = %38
  %46 = load i32, i32* %6, align 4
  %47 = sext i32 %46 to i64
  %48 = getelementptr inbounds [510 x i8], [510 x i8]* %2, i64 0, i64 %47
  %49 = load i8, i8* %48, align 1
  %50 = sext i8 %49 to i32
  %51 = icmp ne i32 %50, 67
  br i1 %51, label %52, label %59

52:                                               ; preds = %45
  %53 = load i32, i32* %6, align 4
  %54 = sext i32 %53 to i64
  %55 = getelementptr inbounds [510 x i8], [510 x i8]* %2, i64 0, i64 %54
  %56 = load i8, i8* %55, align 1
  %57 = sext i8 %56 to i32
  %58 = icmp ne i32 %57, 71
  br i1 %58, label %87, label %59

59:                                               ; preds = %52, %45, %38, %31
  %60 = load i32, i32* %6, align 4
  %61 = sext i32 %60 to i64
  %62 = getelementptr inbounds [510 x i8], [510 x i8]* %3, i64 0, i64 %61
  %63 = load i8, i8* %62, align 1
  %64 = sext i8 %63 to i32
  %65 = icmp ne i32 %64, 65
  br i1 %65, label %66, label %89

66:                                               ; preds = %59
  %67 = load i32, i32* %6, align 4
  %68 = sext i32 %67 to i64
  %69 = getelementptr inbounds [510 x i8], [510 x i8]* %3, i64 0, i64 %68
  %70 = load i8, i8* %69, align 1
  %71 = sext i8 %70 to i32
  %72 = icmp ne i32 %71, 84
  br i1 %72, label %73, label %89

73:                                               ; preds = %66
  %74 = load i32, i32* %6, align 4
  %75 = sext i32 %74 to i64
  %76 = getelementptr inbounds [510 x i8], [510 x i8]* %3, i64 0, i64 %75
  %77 = load i8, i8* %76, align 1
  %78 = sext i8 %77 to i32
  %79 = icmp ne i32 %78, 67
  br i1 %79, label %80, label %89

80:                                               ; preds = %73
  %81 = load i32, i32* %6, align 4
  %82 = sext i32 %81 to i64
  %83 = getelementptr inbounds [510 x i8], [510 x i8]* %3, i64 0, i64 %82
  %84 = load i8, i8* %83, align 1
  %85 = sext i8 %84 to i32
  %86 = icmp ne i32 %85, 71
  br i1 %86, label %87, label %89

87:                                               ; preds = %80, %52
  %88 = call i32 (i8*, ...) @printf(i8* getelementptr inbounds ([6 x i8], [6 x i8]* @.str.2, i64 0, i64 0))
  store i32 0, i32* %1, align 4
  br label %123

89:                                               ; preds = %80, %73, %66, %59
  %90 = load i32, i32* %6, align 4
  %91 = sext i32 %90 to i64
  %92 = getelementptr inbounds [510 x i8], [510 x i8]* %2, i64 0, i64 %91
  %93 = load i8, i8* %92, align 1
  %94 = sext i8 %93 to i32
  %95 = load i32, i32* %6, align 4
  %96 = sext i32 %95 to i64
  %97 = getelementptr inbounds [510 x i8], [510 x i8]* %3, i64 0, i64 %96
  %98 = load i8, i8* %97, align 1
  %99 = sext i8 %98 to i32
  %100 = icmp eq i32 %94, %99
  br i1 %100, label %101, label %104

101:                                              ; preds = %89
  %102 = load i32, i32* %7, align 4
  %103 = add nsw i32 %102, 1
  store i32 %103, i32* %7, align 4
  br label %104

104:                                              ; preds = %101, %89
  br label %105

105:                                              ; preds = %104
  %106 = load i32, i32* %6, align 4
  %107 = add nsw i32 %106, 1
  store i32 %107, i32* %6, align 4
  br label %27

108:                                              ; preds = %27
  %109 = load double, double* %8, align 8
  %110 = load i32, i32* %4, align 4
  %111 = sitofp i32 %110 to double
  %112 = fmul double %109, %111
  store double %112, double* %9, align 8
  %113 = load i32, i32* %7, align 4
  %114 = sitofp i32 %113 to double
  %115 = load double, double* %9, align 8
  %116 = fcmp ogt double %114, %115
  br i1 %116, label %117, label %119

117:                                              ; preds = %108
  %118 = call i32 (i8*, ...) @printf(i8* getelementptr inbounds ([4 x i8], [4 x i8]* @.str.3, i64 0, i64 0))
  br label %121

119:                                              ; preds = %108
  %120 = call i32 (i8*, ...) @printf(i8* getelementptr inbounds ([3 x i8], [3 x i8]* @.str.4, i64 0, i64 0))
  br label %121

121:                                              ; preds = %119, %117
  br label %122

122:                                              ; preds = %121, %24
  store i32 0, i32* %1, align 4
  br label %123

123:                                              ; preds = %122, %87
  %124 = load i32, i32* %1, align 4
  ret i32 %124
}

declare dso_local i32 @__isoc99_scanf(i8*, ...) #1

; Function Attrs: nounwind readonly
declare dso_local i64 @strlen(i8*) #2

declare dso_local i32 @printf(i8*, ...) #1


!llvm.module.flags = !{!0}
!llvm.ident = !{!1}

!0 = !{i32 1, !"wchar_size", i32 4}
!1 = !{!"clang version 10.0.0-4ubuntu1 "}
